; Function Attrs: mustprogress uwtable
define noundef ptr @cvCloneMat(ptr noundef %0) local_unnamed_addr #0 personality ptr @__gxx_personality_v0 {
  %2 = alloca %"class.std::__cxx11::basic_string", align 8
  %3 = alloca %"class.std::allocator", align 1
  %.not = icmp eq ptr %0, null
  br i1 %.not, label %16, label %4

4:                                                ; preds = %1
  %5 = load i32, ptr %0, align 8, !tbaa !22
  %6 = and i32 %5, -65536
  %7 = icmp eq i32 %6, 1111621632
  br i1 %7, label %8, label %16

8:                                                ; preds = %4
  %9 = getelementptr inbounds nuw i8, ptr %0, i64 36
  %10 = load i32, ptr %9, align 4, !tbaa !23
  %11 = icmp sgt i32 %10, 0
  br i1 %11, label %12, label %16

12:                                               ; preds = %8
  %13 = getelementptr inbounds nuw i8, ptr %0, i64 32
  %14 = load i32, ptr %13, align 8, !tbaa !23
  %15 = icmp sgt i32 %14, 0
  br i1 %15, label %26, label %16

16:                                               ; preds = %12, %8, %4, %1
  call void @llvm.lifetime.start.p0(i64 32, ptr nonnull %2) #12
  call void @llvm.lifetime.start.p0(i64 1, ptr nonnull %3) #12
  call void @_ZNSt7__cxx1112basic_stringIcSt11char_traitsIcESaIcEEC2EPKcRKS3_(ptr noundef nonnull align 8 dereferenceable(32) %2, ptr noundef nonnull @.str.6, ptr noundef nonnull align 1 dereferenceable(1) %3)
  invoke void @_ZN2cv5errorEiRKNSt7__cxx1112basic_stringIcSt11char_traitsIcESaIcEEEPKcS9_i(i32 noundef -5, ptr noundef nonnull align 8 dereferenceable(32) %2, ptr noundef nonnull @__func__.cvCloneMat, ptr noundef nonnull @.str.1, i32 noundef 214) #13
          to label %17 unwind label %18

17:                                               ; preds = %16
  unreachable

18:                                               ; preds = %16
  %19 = landingpad { ptr, i32 }
          cleanup
  %20 = load ptr, ptr %2, align 8, !tbaa !3
  %21 = getelementptr inbounds nuw i8, ptr %2, i64 16
  %22 = icmp eq ptr %20, %21
  br i1 %22, label %_ZNKSt7__cxx1112basic_stringIcSt11char_traitsIcESaIcEE11_M_is_localEv.exit.thread.i.i, label %_ZNKSt7__cxx1112basic_stringIcSt11char_traitsIcESaIcEE11_M_is_localEv.exit.i.i

_ZNKSt7__cxx1112basic_stringIcSt11char_traitsIcESaIcEE11_M_is_localEv.exit.thread.i.i: ; preds = %18
  %23 = getelementptr inbounds nuw i8, ptr %2, i64 8
  %24 = load i64, ptr %23, align 8, !tbaa !11
  %25 = icmp ult i64 %24, 16
  call void @llvm.assume(i1 %25)
  br label %_ZNSt7__cxx1112basic_stringIcSt11char_traitsIcESaIcEED2Ev.exit

_ZNKSt7__cxx1112basic_stringIcSt11char_traitsIcESaIcEE11_M_is_localEv.exit.i.i: ; preds = %18
  call void @_ZdlPv(ptr noundef %20) #14
  br label %_ZNSt7__cxx1112basic_stringIcSt11char_traitsIcESaIcEED2Ev.exit

_ZNSt7__cxx1112basic_stringIcSt11char_traitsIcESaIcEED2Ev.exit: ; preds = %_ZNKSt7__cxx1112basic_stringIcSt11char_traitsIcESaIcEE11_M_is_localEv.exit.i.i, %_ZNKSt7__cxx1112basic_stringIcSt11char_traitsIcESaIcEE11_M_is_localEv.exit.thread.i.i
  call void @llvm.lifetime.end.p0(i64 1, ptr nonnull %3) #12
  call void @llvm.lifetime.end.p0(i64 32, ptr nonnull %2) #12
  resume { ptr, i32 } %19

26:                                               ; preds = %12
  %27 = tail call ptr @cvCreateMatHeader(i32 noundef %14, i32 noundef %10, i32 noundef %5)
  %28 = getelementptr inbounds nuw i8, ptr %0, i64 24
  %29 = load ptr, ptr %28, align 8, !tbaa !23
  %.not18 = icmp eq ptr %29, null
  br i1 %.not18, label %31, label %30

30:                                               ; preds = %26
  tail call void @cvCreateData(ptr noundef %27)
  tail call void @cvCopy(ptr noundef nonnull %0, ptr noundef %27, ptr noundef null)
  br label %31

31:                                               ; preds = %30, %26
  ret ptr %27
}